---
triple:          'arm64-apple-darwin'
binary-path:     ws
relocations:
  - { offsetInCU: 0x32C9, offset: 0x32C9, size: 0x8, addend: 0x0, symName: __ZNSt3__16copy_nB8ue170006IPKcmPcEENS_9enable_ifIXsr37__has_random_access_iterator_categoryIT_EE5valueET1_E4typeES5_T0_S6_, symObjAddr: 0x1740, symBinAddr: 0x10000229C, symSize: 0x44 }
  - { offsetInCU: 0x3350, offset: 0x3350, size: 0x8, addend: 0x0, symName: __ZNSt3__124__put_character_sequenceB8ue170006IcNS_11char_traitsIcEEEERNS_13basic_ostreamIT_T0_EES7_PKS4_m, symObjAddr: 0x1FC4, symBinAddr: 0x100002B20, symSize: 0x1EC }
  - { offsetInCU: 0x4EE1, offset: 0x4EE1, size: 0x8, addend: 0x0, symName: __ZNSt3__1plB8ue170006IcNS_11char_traitsIcEENS_9allocatorIcEEEENS_12basic_stringIT_T0_T1_EEOS9_SA_, symObjAddr: 0x53C, symBinAddr: 0x100001098, symSize: 0x40 }
  - { offsetInCU: 0x4F39, offset: 0x4F39, size: 0x8, addend: 0x0, symName: __ZNSt3__1plB8ue170006IcNS_11char_traitsIcEENS_9allocatorIcEEEENS_12basic_stringIT_T0_T1_EEOS9_PKS6_, symObjAddr: 0x57C, symBinAddr: 0x1000010D8, symSize: 0x40 }
  - { offsetInCU: 0x4F91, offset: 0x4F91, size: 0x8, addend: 0x0, symName: __ZNSt3__1plB8ue170006IcNS_11char_traitsIcEENS_9allocatorIcEEEENS_12basic_stringIT_T0_T1_EERKS9_PKS6_, symObjAddr: 0x5BC, symBinAddr: 0x100001118, symSize: 0x11C }
  - { offsetInCU: 0x5032, offset: 0x5032, size: 0x8, addend: 0x0, symName: __ZNSt3__1lsB8ue170006INS_11char_traitsIcEEEERNS_13basic_ostreamIcT_EES6_PKc, symObjAddr: 0x738, symBinAddr: 0x100001294, symSize: 0x48 }
  - { offsetInCU: 0x5078, offset: 0x5078, size: 0x8, addend: 0x0, symName: __ZNSt3__1lsB8ue170006IcNS_11char_traitsIcEENS_9allocatorIcEEEERNS_13basic_ostreamIT_T0_EES9_RKNS_12basic_stringIS6_S7_T1_EE, symObjAddr: 0x780, symBinAddr: 0x1000012DC, symSize: 0x4C }
  - { offsetInCU: 0x50D0, offset: 0x50D0, size: 0x8, addend: 0x0, symName: __ZNSt3__1plB8ue170006IcNS_11char_traitsIcEENS_9allocatorIcEEEENS_12basic_stringIT_T0_T1_EEPKS6_OS9_, symObjAddr: 0x7F4, symBinAddr: 0x100001350, symSize: 0x44 }
  - { offsetInCU: 0x5128, offset: 0x5128, size: 0x8, addend: 0x0, symName: __ZNSt3__112__to_addressB8ue170006IKcEEPT_S3_, symObjAddr: 0xC4C, symBinAddr: 0x1000017A8, symSize: 0x14 }
  - { offsetInCU: 0x5190, offset: 0x5190, size: 0x8, addend: 0x0, symName: __ZNSt3__112__to_addressB8ue170006IcEEPT_S2_, symObjAddr: 0xDBC, symBinAddr: 0x100001918, symSize: 0x14 }
  - { offsetInCU: 0x51C5, offset: 0x51C5, size: 0x8, addend: 0x0, symName: __ZNSt3__118__constexpr_strlenB8ue170006EPKc, symObjAddr: 0xEA8, symBinAddr: 0x100001A04, symSize: 0x24 }
  - { offsetInCU: 0x53DD, offset: 0x53DD, size: 0x8, addend: 0x0, symName: __ZNSt3__120__throw_length_errorB8ue170006EPKc, symObjAddr: 0x1448, symBinAddr: 0x100001FA4, symSize: 0x64 }
  - { offsetInCU: 0x5407, offset: 0x5407, size: 0x8, addend: 0x0, symName: __ZNSt3__117__libcpp_allocateB8ue170006Emm, symObjAddr: 0x15D4, symBinAddr: 0x100002130, symSize: 0x60 }
  - { offsetInCU: 0x5461, offset: 0x5461, size: 0x8, addend: 0x0, symName: __ZNSt3__124__is_overaligned_for_newB8ue170006Em, symObjAddr: 0x1634, symBinAddr: 0x100002190, symSize: 0x20 }
  - { offsetInCU: 0x548F, offset: 0x548F, size: 0x8, addend: 0x0, symName: __ZNSt3__121__libcpp_operator_newB8ue170006IJmSt11align_val_tEEEPvDpT_, symObjAddr: 0x1654, symBinAddr: 0x1000021B0, symSize: 0x2C }
  - { offsetInCU: 0x54DC, offset: 0x54DC, size: 0x8, addend: 0x0, symName: __ZNSt3__121__libcpp_operator_newB8ue170006IJmEEEPvDpT_, symObjAddr: 0x1680, symBinAddr: 0x1000021DC, symSize: 0x24 }
  - { offsetInCU: 0x5548, offset: 0x5548, size: 0x8, addend: 0x0, symName: __ZNSt3__14copyB8ue170006IPKcPcEET0_T_S5_S4_, symObjAddr: 0x1784, symBinAddr: 0x1000022E0, symSize: 0x40 }
  - { offsetInCU: 0x55A2, offset: 0x55A2, size: 0x8, addend: 0x0, symName: __ZNSt3__16__copyB8ue170006INS_17_ClassicAlgPolicyEPKcS3_PcEENS_4pairIT0_T2_EES6_T1_S7_, symObjAddr: 0x17C4, symBinAddr: 0x100002320, symSize: 0x44 }
  - { offsetInCU: 0x560E, offset: 0x560E, size: 0x8, addend: 0x0, symName: __ZNSt3__123__dispatch_copy_or_moveB8ue170006INS_17_ClassicAlgPolicyENS_11__copy_loopIS1_EENS_14__copy_trivialEPKcS6_PcEENS_4pairIT2_T4_EES9_T3_SA_, symObjAddr: 0x1808, symBinAddr: 0x100002364, symSize: 0x44 }
  - { offsetInCU: 0x568C, offset: 0x568C, size: 0x8, addend: 0x0, symName: __ZNSt3__121__unwrap_and_dispatchB8ue170006INS_10__overloadINS_11__copy_loopINS_17_ClassicAlgPolicyEEENS_14__copy_trivialEEEPKcS8_PcLi0EEENS_4pairIT0_T2_EESB_T1_SC_, symObjAddr: 0x184C, symBinAddr: 0x1000023A8, symSize: 0xB4 }
  - { offsetInCU: 0x571A, offset: 0x571A, size: 0x8, addend: 0x0, symName: __ZNSt3__114__unwrap_rangeB8ue170006IPKcS2_EENS_4pairIT0_S4_EET_S6_, symObjAddr: 0x1900, symBinAddr: 0x10000245C, symSize: 0x60 }
  - { offsetInCU: 0x58AF, offset: 0x58AF, size: 0x8, addend: 0x0, symName: __ZNSt3__113__unwrap_iterB8ue170006IPcNS_18__unwrap_iter_implIS1_Lb1EEELi0EEEDTclsrT0_8__unwrapclsr3stdE7declvalIT_EEEES5_, symObjAddr: 0x19A8, symBinAddr: 0x100002504, symSize: 0x24 }
  - { offsetInCU: 0x58F3, offset: 0x58F3, size: 0x8, addend: 0x0, symName: __ZNSt3__19make_pairB8ue170006IPKcPcEENS_4pairINS_18__unwrap_ref_decayIT_E4typeENS5_IT0_E4typeEEEOS6_OS9_, symObjAddr: 0x19CC, symBinAddr: 0x100002528, symSize: 0x38 }
  - { offsetInCU: 0x5942, offset: 0x5942, size: 0x8, addend: 0x0, symName: __ZNSt3__114__rewrap_rangeB8ue170006IPKcS2_EET_S3_T0_, symObjAddr: 0x1A04, symBinAddr: 0x100002560, symSize: 0x2C }
  - { offsetInCU: 0x598E, offset: 0x598E, size: 0x8, addend: 0x0, symName: __ZNSt3__113__rewrap_iterB8ue170006IPcS1_NS_18__unwrap_iter_implIS1_Lb1EEEEET_S4_T0_, symObjAddr: 0x1A30, symBinAddr: 0x10000258C, symSize: 0x3C }
  - { offsetInCU: 0x59E3, offset: 0x59E3, size: 0x8, addend: 0x0, symName: __ZNSt3__19make_pairB8ue170006IPKcS2_EENS_4pairINS_18__unwrap_ref_decayIT_E4typeENS4_IT0_E4typeEEEOS5_OS8_, symObjAddr: 0x1A6C, symBinAddr: 0x1000025C8, symSize: 0x38 }
  - { offsetInCU: 0x5A32, offset: 0x5A32, size: 0x8, addend: 0x0, symName: __ZNSt3__113__unwrap_iterB8ue170006IPKcNS_18__unwrap_iter_implIS2_Lb1EEELi0EEEDTclsrT0_8__unwrapclsr3stdE7declvalIT_EEEES6_, symObjAddr: 0x1AA4, symBinAddr: 0x100002600, symSize: 0x24 }
  - { offsetInCU: 0x5B9D, offset: 0x5B9D, size: 0x8, addend: 0x0, symName: __ZNSt3__119__copy_trivial_implB8ue170006IKccEENS_4pairIPT_PT0_EES4_S4_S6_, symObjAddr: 0x1B5C, symBinAddr: 0x1000026B8, symSize: 0x78 }
  - { offsetInCU: 0x5C05, offset: 0x5C05, size: 0x8, addend: 0x0, symName: __ZNSt3__119__constexpr_memmoveB8ue170006IcKcLi0EEEPT_S3_PT0_NS_15__element_countE, symObjAddr: 0x1BD4, symBinAddr: 0x100002730, symSize: 0x64 }
  - { offsetInCU: 0x5C73, offset: 0x5C73, size: 0x8, addend: 0x0, symName: __ZNSt3__19make_pairB8ue170006IRPKcPcEENS_4pairINS_18__unwrap_ref_decayIT_E4typeENS6_IT0_E4typeEEEOS7_OSA_, symObjAddr: 0x1C38, symBinAddr: 0x100002794, symSize: 0x38 }
  - { offsetInCU: 0x5D15, offset: 0x5D15, size: 0x8, addend: 0x0, symName: __ZNSt3__113__rewrap_iterB8ue170006IPKcS2_NS_18__unwrap_iter_implIS2_Lb1EEEEET_S5_T0_, symObjAddr: 0x1D74, symBinAddr: 0x1000028D0, symSize: 0x3C }
  - { offsetInCU: 0x5D6A, offset: 0x5D6A, size: 0x8, addend: 0x0, symName: __ZNSt3__16fill_nB8ue170006IPcmcEET_S2_T0_RKT1_, symObjAddr: 0x1E40, symBinAddr: 0x10000299C, symSize: 0x44 }
  - { offsetInCU: 0x5DCD, offset: 0x5DCD, size: 0x8, addend: 0x0, symName: __ZNSt3__18__fill_nB8ue170006IPcmcEET_S2_T0_RKT1_, symObjAddr: 0x1E84, symBinAddr: 0x1000029E0, symSize: 0x64 }
  - { offsetInCU: 0x5E30, offset: 0x5E30, size: 0x8, addend: 0x0, symName: __ZNSt3__121__convert_to_integralB8ue170006Em, symObjAddr: 0x1EE8, symBinAddr: 0x100002A44, symSize: 0x14 }
  - { offsetInCU: 0x5E5C, offset: 0x5E5C, size: 0x8, addend: 0x0, symName: __ZNSt3__116__pad_and_outputB8ue170006IcNS_11char_traitsIcEEEENS_19ostreambuf_iteratorIT_T0_EES6_PKS4_S8_S8_RNS_8ios_baseES4_, symObjAddr: 0x21CC, symBinAddr: 0x100002D28, symSize: 0x240 }
  - { offsetInCU: 0x5F2B, offset: 0x5F2B, size: 0x8, addend: 0x0, symName: __ZNSt3__19use_facetB8ue170006INS_5ctypeIcEEEERKT_RKNS_6localeE, symObjAddr: 0x2754, symBinAddr: 0x1000032B0, symSize: 0x2C }
  - { offsetInCU: 0x6679, offset: 0x6679, size: 0x8, addend: 0x0, symName: __ZSt28__throw_bad_array_new_lengthB8ue170006v, symObjAddr: 0x15A0, symBinAddr: 0x1000020FC, symSize: 0x34 }
  - { offsetInCU: 0x8E45, offset: 0x8E45, size: 0x8, addend: 0x0, symName: __ZN6senecalsERNSt3__113basic_ostreamIcNS0_11char_traitsIcEEEERKNS_4BookE, symObjAddr: 0x838, symBinAddr: 0x100001394, symSize: 0x2C }
  - { offsetInCU: 0x8E9A, offset: 0x8E9A, size: 0x8, addend: 0x0, symName: __ZN6seneca4BookC2Ev, symObjAddr: 0x0, symBinAddr: 0x100000B5C, symSize: 0x34 }
  - { offsetInCU: 0x8EC6, offset: 0x8EC6, size: 0x8, addend: 0x0, symName: __ZNSt3__112basic_stringIcNS_11char_traitsIcEENS_9allocatorIcEEEC1B8ue170006Ev, symObjAddr: 0x34, symBinAddr: 0x100000B90, symSize: 0x2C }
  - { offsetInCU: 0x8EF0, offset: 0x8EF0, size: 0x8, addend: 0x0, symName: __ZN6seneca4BookC1Ev, symObjAddr: 0x60, symBinAddr: 0x100000BBC, symSize: 0x2C }
  - { offsetInCU: 0x8F1C, offset: 0x8F1C, size: 0x8, addend: 0x0, symName: __ZN6seneca4BookC2ERKNSt3__112basic_stringIcNS1_11char_traitsIcEENS1_9allocatorIcEEEEjj, symObjAddr: 0x8C, symBinAddr: 0x100000BE8, symSize: 0xD0 }
  - { offsetInCU: 0x8F72, offset: 0x8F72, size: 0x8, addend: 0x0, symName: __ZNKSt3__112basic_stringIcNS_11char_traitsIcEENS_9allocatorIcEEEixB8ue170006Em, symObjAddr: 0x15C, symBinAddr: 0x100000CB8, symSize: 0x30 }
  - { offsetInCU: 0x8FA7, offset: 0x8FA7, size: 0x8, addend: 0x0, symName: __ZN6seneca4BookC1ERKNSt3__112basic_stringIcNS1_11char_traitsIcEENS1_9allocatorIcEEEEjj, symObjAddr: 0x18C, symBinAddr: 0x100000CE8, symSize: 0x44 }
  - { offsetInCU: 0x8FFD, offset: 0x8FFD, size: 0x8, addend: 0x0, symName: __ZNK6seneca4Book5printERNSt3__113basic_ostreamIcNS1_11char_traitsIcEEEE, symObjAddr: 0x1D0, symBinAddr: 0x100000D2C, symSize: 0x33C }
  - { offsetInCU: 0x9065, offset: 0x9065, size: 0x8, addend: 0x0, symName: __ZNKSt3__112basic_stringIcNS_11char_traitsIcEENS_9allocatorIcEEE5emptyB8ue170006Ev, symObjAddr: 0x50C, symBinAddr: 0x100001068, symSize: 0x30 }
  - { offsetInCU: 0x908B, offset: 0x908B, size: 0x8, addend: 0x0, symName: __ZNSt3__18ios_base5widthB8ue170006El, symObjAddr: 0x6D8, symBinAddr: 0x100001234, symSize: 0x2C }
  - { offsetInCU: 0x90D1, offset: 0x90D1, size: 0x8, addend: 0x0, symName: __ZNSt3__18ios_base4setfB8ue170006Ej, symObjAddr: 0x704, symBinAddr: 0x100001260, symSize: 0x34 }
  - { offsetInCU: 0x9117, offset: 0x9117, size: 0x8, addend: 0x0, symName: __ZNSt3__18ios_base6unsetfB8ue170006Ej, symObjAddr: 0x7CC, symBinAddr: 0x100001328, symSize: 0x28 }
  - { offsetInCU: 0x914E, offset: 0x914E, size: 0x8, addend: 0x0, symName: __ZNK6seneca4BookltERKS0_, symObjAddr: 0x864, symBinAddr: 0x1000013C0, symSize: 0xA8 }
  - { offsetInCU: 0x91A0, offset: 0x91A0, size: 0x8, addend: 0x0, symName: __ZNK6seneca4BookgtERKS0_, symObjAddr: 0x90C, symBinAddr: 0x100001468, symSize: 0x34 }
  - { offsetInCU: 0x91D6, offset: 0x91D6, size: 0x8, addend: 0x0, symName: __ZNSt3__112basic_stringIcNS_11char_traitsIcEENS_9allocatorIcEEEC2B8ue170006Ev, symObjAddr: 0x940, symBinAddr: 0x10000149C, symSize: 0x48 }
  - { offsetInCU: 0x9205, offset: 0x9205, size: 0x8, addend: 0x0, symName: __ZNSt3__117__compressed_pairINS_12basic_stringIcNS_11char_traitsIcEENS_9allocatorIcEEE5__repES5_EC1B8ue170006INS_18__default_init_tagESA_EEOT_OT0_, symObjAddr: 0x988, symBinAddr: 0x1000014E4, symSize: 0x3C }
  - { offsetInCU: 0x925D, offset: 0x925D, size: 0x8, addend: 0x0, symName: __ZNSt3__112basic_stringIcNS_11char_traitsIcEENS_9allocatorIcEEE14__default_initB8ue170006Ev, symObjAddr: 0x9D0, symBinAddr: 0x10000152C, symSize: 0x40 }
  - { offsetInCU: 0x9283, offset: 0x9283, size: 0x8, addend: 0x0, symName: __ZNSt3__117__compressed_pairINS_12basic_stringIcNS_11char_traitsIcEENS_9allocatorIcEEE5__repES5_EC2B8ue170006INS_18__default_init_tagESA_EEOT_OT0_, symObjAddr: 0xA10, symBinAddr: 0x10000156C, symSize: 0x3C }
  - { offsetInCU: 0x92DB, offset: 0x92DB, size: 0x8, addend: 0x0, symName: __ZNSt3__122__compressed_pair_elemINS_12basic_stringIcNS_11char_traitsIcEENS_9allocatorIcEEE5__repELi0ELb0EEC2B8ue170006ENS_18__default_init_tagE, symObjAddr: 0xA4C, symBinAddr: 0x1000015A8, symSize: 0x14 }
  - { offsetInCU: 0x9310, offset: 0x9310, size: 0x8, addend: 0x0, symName: __ZNSt3__122__compressed_pair_elemINS_9allocatorIcEELi1ELb1EEC2B8ue170006ENS_18__default_init_tagE, symObjAddr: 0xA60, symBinAddr: 0x1000015BC, symSize: 0x2C }
  - { offsetInCU: 0x9345, offset: 0x9345, size: 0x8, addend: 0x0, symName: __ZNSt3__19allocatorIcEC2B8ue170006Ev, symObjAddr: 0xA8C, symBinAddr: 0x1000015E8, symSize: 0x2C }
  - { offsetInCU: 0x936F, offset: 0x936F, size: 0x8, addend: 0x0, symName: __ZNSt3__116__non_trivial_ifILb1ENS_9allocatorIcEEEC2B8ue170006Ev, symObjAddr: 0xAB8, symBinAddr: 0x100001614, symSize: 0x14 }
  - { offsetInCU: 0x9399, offset: 0x9399, size: 0x8, addend: 0x0, symName: __ZNSt3__117__compressed_pairINS_12basic_stringIcNS_11char_traitsIcEENS_9allocatorIcEEE5__repES5_E5firstB8ue170006Ev, symObjAddr: 0xACC, symBinAddr: 0x100001628, symSize: 0x24 }
  - { offsetInCU: 0x93BF, offset: 0x93BF, size: 0x8, addend: 0x0, symName: __ZNSt3__122__compressed_pair_elemINS_12basic_stringIcNS_11char_traitsIcEENS_9allocatorIcEEE5__repELi0ELb0EE5__getB8ue170006Ev, symObjAddr: 0xAF0, symBinAddr: 0x10000164C, symSize: 0x14 }
  - { offsetInCU: 0x93E5, offset: 0x93E5, size: 0x8, addend: 0x0, symName: __ZNKSt3__112basic_stringIcNS_11char_traitsIcEENS_9allocatorIcEEE4sizeB8ue170006Ev, symObjAddr: 0xB04, symBinAddr: 0x100001660, symSize: 0x54 }
  - { offsetInCU: 0x940B, offset: 0x940B, size: 0x8, addend: 0x0, symName: __ZNKSt3__112basic_stringIcNS_11char_traitsIcEENS_9allocatorIcEEE9__is_longB8ue170006Ev, symObjAddr: 0xB58, symBinAddr: 0x1000016B4, symSize: 0x38 }
  - { offsetInCU: 0x9431, offset: 0x9431, size: 0x8, addend: 0x0, symName: __ZNKSt3__112basic_stringIcNS_11char_traitsIcEENS_9allocatorIcEEE15__get_long_sizeB8ue170006Ev, symObjAddr: 0xB90, symBinAddr: 0x1000016EC, symSize: 0x28 }
  - { offsetInCU: 0x9457, offset: 0x9457, size: 0x8, addend: 0x0, symName: __ZNKSt3__112basic_stringIcNS_11char_traitsIcEENS_9allocatorIcEEE16__get_short_sizeB8ue170006Ev, symObjAddr: 0xBB8, symBinAddr: 0x100001714, symSize: 0x34 }
  - { offsetInCU: 0x947D, offset: 0x947D, size: 0x8, addend: 0x0, symName: __ZNKSt3__117__compressed_pairINS_12basic_stringIcNS_11char_traitsIcEENS_9allocatorIcEEE5__repES5_E5firstB8ue170006Ev, symObjAddr: 0xBEC, symBinAddr: 0x100001748, symSize: 0x24 }
  - { offsetInCU: 0x94A3, offset: 0x94A3, size: 0x8, addend: 0x0, symName: __ZNKSt3__122__compressed_pair_elemINS_12basic_stringIcNS_11char_traitsIcEENS_9allocatorIcEEE5__repELi0ELb0EE5__getB8ue170006Ev, symObjAddr: 0xC10, symBinAddr: 0x10000176C, symSize: 0x14 }
  - { offsetInCU: 0x94C9, offset: 0x94C9, size: 0x8, addend: 0x0, symName: __ZNKSt3__112basic_stringIcNS_11char_traitsIcEENS_9allocatorIcEEE4dataB8ue170006Ev, symObjAddr: 0xC24, symBinAddr: 0x100001780, symSize: 0x28 }
  - { offsetInCU: 0x94EF, offset: 0x94EF, size: 0x8, addend: 0x0, symName: __ZNKSt3__112basic_stringIcNS_11char_traitsIcEENS_9allocatorIcEEE13__get_pointerB8ue170006Ev, symObjAddr: 0xC60, symBinAddr: 0x1000017BC, symSize: 0x54 }
  - { offsetInCU: 0x9515, offset: 0x9515, size: 0x8, addend: 0x0, symName: __ZNKSt3__112basic_stringIcNS_11char_traitsIcEENS_9allocatorIcEEE18__get_long_pointerB8ue170006Ev, symObjAddr: 0xCB4, symBinAddr: 0x100001810, symSize: 0x28 }
  - { offsetInCU: 0x953B, offset: 0x953B, size: 0x8, addend: 0x0, symName: __ZNKSt3__112basic_stringIcNS_11char_traitsIcEENS_9allocatorIcEEE19__get_short_pointerB8ue170006Ev, symObjAddr: 0xCDC, symBinAddr: 0x100001838, symSize: 0x28 }
  - { offsetInCU: 0x9561, offset: 0x9561, size: 0x8, addend: 0x0, symName: __ZNSt3__114pointer_traitsIPKcE10pointer_toB8ue170006ERS1_, symObjAddr: 0xD04, symBinAddr: 0x100001860, symSize: 0x14 }
  - { offsetInCU: 0x9584, offset: 0x9584, size: 0x8, addend: 0x0, symName: __ZNSt3__111char_traitsIcE6lengthB8ue170006EPKc, symObjAddr: 0xD18, symBinAddr: 0x100001874, symSize: 0x34 }
  - { offsetInCU: 0x95B1, offset: 0x95B1, size: 0x8, addend: 0x0, symName: __ZNSt3__116allocator_traitsINS_9allocatorIcEEE37select_on_container_copy_constructionB8ue170006IS2_vvEES2_RKS2_, symObjAddr: 0xD4C, symBinAddr: 0x1000018A8, symSize: 0x10 }
  - { offsetInCU: 0x95E0, offset: 0x95E0, size: 0x8, addend: 0x0, symName: __ZNKSt3__112basic_stringIcNS_11char_traitsIcEENS_9allocatorIcEEE13get_allocatorB8ue170006Ev, symObjAddr: 0xD5C, symBinAddr: 0x1000018B8, symSize: 0x24 }
  - { offsetInCU: 0x9606, offset: 0x9606, size: 0x8, addend: 0x0, symName: __ZNSt3__112basic_stringIcNS_11char_traitsIcEENS_9allocatorIcEEEC1B8ue170006ENS_24__uninitialized_size_tagEmRKS4_, symObjAddr: 0xD80, symBinAddr: 0x1000018DC, symSize: 0x3C }
  - { offsetInCU: 0x965A, offset: 0x965A, size: 0x8, addend: 0x0, symName: __ZNSt3__112basic_stringIcNS_11char_traitsIcEENS_9allocatorIcEEE13__get_pointerB8ue170006Ev, symObjAddr: 0xDD0, symBinAddr: 0x10000192C, symSize: 0x54 }
  - { offsetInCU: 0x9680, offset: 0x9680, size: 0x8, addend: 0x0, symName: __ZNSt3__111char_traitsIcE4copyB8ue170006EPcPKcm, symObjAddr: 0xE24, symBinAddr: 0x100001980, symSize: 0x40 }
  - { offsetInCU: 0x96BF, offset: 0x96BF, size: 0x8, addend: 0x0, symName: __ZNSt3__111char_traitsIcE6assignB8ue170006EPcmc, symObjAddr: 0xE64, symBinAddr: 0x1000019C0, symSize: 0x44 }
  - { offsetInCU: 0x96FE, offset: 0x96FE, size: 0x8, addend: 0x0, symName: __ZNKSt3__112basic_stringIcNS_11char_traitsIcEENS_9allocatorIcEEE7__allocB8ue170006Ev, symObjAddr: 0xECC, symBinAddr: 0x100001A28, symSize: 0x24 }
  - { offsetInCU: 0x9724, offset: 0x9724, size: 0x8, addend: 0x0, symName: __ZNKSt3__117__compressed_pairINS_12basic_stringIcNS_11char_traitsIcEENS_9allocatorIcEEE5__repES5_E6secondB8ue170006Ev, symObjAddr: 0xEF0, symBinAddr: 0x100001A4C, symSize: 0x24 }
  - { offsetInCU: 0x974A, offset: 0x974A, size: 0x8, addend: 0x0, symName: __ZNKSt3__122__compressed_pair_elemINS_9allocatorIcEELi1ELb1EE5__getB8ue170006Ev, symObjAddr: 0xF14, symBinAddr: 0x100001A70, symSize: 0x14 }
  - { offsetInCU: 0x9770, offset: 0x9770, size: 0x8, addend: 0x0, symName: __ZNSt3__112basic_stringIcNS_11char_traitsIcEENS_9allocatorIcEEEC2B8ue170006ENS_24__uninitialized_size_tagEmRKS4_, symObjAddr: 0xF28, symBinAddr: 0x100001A84, symSize: 0x110 }
  - { offsetInCU: 0x97F0, offset: 0x97F0, size: 0x8, addend: 0x0, symName: __ZNSt3__117__compressed_pairINS_12basic_stringIcNS_11char_traitsIcEENS_9allocatorIcEEE5__repES5_EC1B8ue170006INS_18__default_init_tagERKS5_EEOT_OT0_, symObjAddr: 0x1038, symBinAddr: 0x100001B94, symSize: 0x3C }
  - { offsetInCU: 0x9848, offset: 0x9848, size: 0x8, addend: 0x0, symName: __ZNKSt3__112basic_stringIcNS_11char_traitsIcEENS_9allocatorIcEEE8max_sizeB8ue170006Ev, symObjAddr: 0x1074, symBinAddr: 0x100001BD0, symSize: 0xAC }
  - { offsetInCU: 0x989A, offset: 0x989A, size: 0x8, addend: 0x0, symName: __ZNKSt3__112basic_stringIcNS_11char_traitsIcEENS_9allocatorIcEEE20__throw_length_errorB8ue170006Ev, symObjAddr: 0x1120, symBinAddr: 0x100001C7C, symSize: 0x1C }
  - { offsetInCU: 0x98C0, offset: 0x98C0, size: 0x8, addend: 0x0, symName: __ZNSt3__112basic_stringIcNS_11char_traitsIcEENS_9allocatorIcEEE13__fits_in_ssoB8ue170006Em, symObjAddr: 0x113C, symBinAddr: 0x100001C98, symSize: 0x20 }
  - { offsetInCU: 0x98E4, offset: 0x98E4, size: 0x8, addend: 0x0, symName: __ZNSt3__112basic_stringIcNS_11char_traitsIcEENS_9allocatorIcEEE16__set_short_sizeB8ue170006Em, symObjAddr: 0x115C, symBinAddr: 0x100001CB8, symSize: 0x78 }
  - { offsetInCU: 0x9919, offset: 0x9919, size: 0x8, addend: 0x0, symName: __ZNSt3__112basic_stringIcNS_11char_traitsIcEENS_9allocatorIcEEE11__recommendB8ue170006Em, symObjAddr: 0x11D4, symBinAddr: 0x100001D30, symSize: 0x84 }
  - { offsetInCU: 0x994C, offset: 0x994C, size: 0x8, addend: 0x0, symName: __ZNSt3__116allocator_traitsINS_9allocatorIcEEE8allocateB8ue170006ERS2_m, symObjAddr: 0x1258, symBinAddr: 0x100001DB4, symSize: 0x2C }
  - { offsetInCU: 0x997F, offset: 0x997F, size: 0x8, addend: 0x0, symName: __ZNSt3__112basic_stringIcNS_11char_traitsIcEENS_9allocatorIcEEE7__allocB8ue170006Ev, symObjAddr: 0x1284, symBinAddr: 0x100001DE0, symSize: 0x24 }
  - { offsetInCU: 0x99A5, offset: 0x99A5, size: 0x8, addend: 0x0, symName: __ZNSt3__112basic_stringIcNS_11char_traitsIcEENS_9allocatorIcEEE16__begin_lifetimeB8ue170006EPcm, symObjAddr: 0x12A8, symBinAddr: 0x100001E04, symSize: 0x14 }
  - { offsetInCU: 0x99D8, offset: 0x99D8, size: 0x8, addend: 0x0, symName: __ZNSt3__112basic_stringIcNS_11char_traitsIcEENS_9allocatorIcEEE14__set_long_capB8ue170006Em, symObjAddr: 0x12BC, symBinAddr: 0x100001E18, symSize: 0x70 }
  - { offsetInCU: 0x9A0D, offset: 0x9A0D, size: 0x8, addend: 0x0, symName: __ZNSt3__112basic_stringIcNS_11char_traitsIcEENS_9allocatorIcEEE18__set_long_pointerB8ue170006EPc, symObjAddr: 0x132C, symBinAddr: 0x100001E88, symSize: 0x38 }
  - { offsetInCU: 0x9A42, offset: 0x9A42, size: 0x8, addend: 0x0, symName: __ZNSt3__112basic_stringIcNS_11char_traitsIcEENS_9allocatorIcEEE15__set_long_sizeB8ue170006Em, symObjAddr: 0x1364, symBinAddr: 0x100001EC0, symSize: 0x38 }
  - { offsetInCU: 0x9A77, offset: 0x9A77, size: 0x8, addend: 0x0, symName: __ZNSt3__117__compressed_pairINS_12basic_stringIcNS_11char_traitsIcEENS_9allocatorIcEEE5__repES5_EC2B8ue170006INS_18__default_init_tagERKS5_EEOT_OT0_, symObjAddr: 0x139C, symBinAddr: 0x100001EF8, symSize: 0x40 }
  - { offsetInCU: 0x9ACF, offset: 0x9ACF, size: 0x8, addend: 0x0, symName: __ZNSt3__122__compressed_pair_elemINS_9allocatorIcEELi1ELb1EEC2B8ue170006IRKS2_vEEOT_, symObjAddr: 0x13DC, symBinAddr: 0x100001F38, symSize: 0x18 }
  - { offsetInCU: 0x9B11, offset: 0x9B11, size: 0x8, addend: 0x0, symName: __ZNSt3__116allocator_traitsINS_9allocatorIcEEE8max_sizeB8ue170006IS2_vEEmRKS2_, symObjAddr: 0x13F4, symBinAddr: 0x100001F50, symSize: 0x24 }
  - { offsetInCU: 0x9B3F, offset: 0x9B3F, size: 0x8, addend: 0x0, symName: __ZNSt3__114numeric_limitsImE3maxB8ue170006Ev, symObjAddr: 0x1418, symBinAddr: 0x100001F74, symSize: 0x14 }
  - { offsetInCU: 0x9B53, offset: 0x9B53, size: 0x8, addend: 0x0, symName: __ZNKSt3__19allocatorIcE8max_sizeB8ue170006Ev, symObjAddr: 0x142C, symBinAddr: 0x100001F88, symSize: 0x14 }
  - { offsetInCU: 0x9B79, offset: 0x9B79, size: 0x8, addend: 0x0, symName: __ZNSt3__123__libcpp_numeric_limitsImLb1EE3maxB8ue170006Ev, symObjAddr: 0x1440, symBinAddr: 0x100001F9C, symSize: 0x8 }
  - { offsetInCU: 0x9B8D, offset: 0x9B8D, size: 0x8, addend: 0x0, symName: __ZNSt12length_errorC1B8ue170006EPKc, symObjAddr: 0x14AC, symBinAddr: 0x100002008, symSize: 0x34 }
  - { offsetInCU: 0x9BC5, offset: 0x9BC5, size: 0x8, addend: 0x0, symName: __ZNSt12length_errorC2B8ue170006EPKc, symObjAddr: 0x14E0, symBinAddr: 0x10000203C, symSize: 0x4C }
  - { offsetInCU: 0x9BFD, offset: 0x9BFD, size: 0x8, addend: 0x0, symName: __ZNSt3__112basic_stringIcNS_11char_traitsIcEENS_9allocatorIcEEE10__align_itB8ue170006ILm16EEEmm, symObjAddr: 0x152C, symBinAddr: 0x100002088, symSize: 0x1C }
  - { offsetInCU: 0x9C2B, offset: 0x9C2B, size: 0x8, addend: 0x0, symName: __ZNSt3__19allocatorIcE8allocateB8ue170006Em, symObjAddr: 0x1548, symBinAddr: 0x1000020A4, symSize: 0x58 }
  - { offsetInCU: 0x9C5F, offset: 0x9C5F, size: 0x8, addend: 0x0, symName: __ZNSt3__117__compressed_pairINS_12basic_stringIcNS_11char_traitsIcEENS_9allocatorIcEEE5__repES5_E6secondB8ue170006Ev, symObjAddr: 0x16A4, symBinAddr: 0x100002200, symSize: 0x24 }
  - { offsetInCU: 0x9C85, offset: 0x9C85, size: 0x8, addend: 0x0, symName: __ZNSt3__122__compressed_pair_elemINS_9allocatorIcEELi1ELb1EE5__getB8ue170006Ev, symObjAddr: 0x16C8, symBinAddr: 0x100002224, symSize: 0x14 }
  - { offsetInCU: 0x9CAB, offset: 0x9CAB, size: 0x8, addend: 0x0, symName: __ZNSt3__112basic_stringIcNS_11char_traitsIcEENS_9allocatorIcEEE18__get_long_pointerB8ue170006Ev, symObjAddr: 0x16DC, symBinAddr: 0x100002238, symSize: 0x28 }
  - { offsetInCU: 0x9CD1, offset: 0x9CD1, size: 0x8, addend: 0x0, symName: __ZNSt3__112basic_stringIcNS_11char_traitsIcEENS_9allocatorIcEEE19__get_short_pointerB8ue170006Ev, symObjAddr: 0x1704, symBinAddr: 0x100002260, symSize: 0x28 }
  - { offsetInCU: 0x9CF7, offset: 0x9CF7, size: 0x8, addend: 0x0, symName: __ZNSt3__114pointer_traitsIPcE10pointer_toB8ue170006ERc, symObjAddr: 0x172C, symBinAddr: 0x100002288, symSize: 0x14 }
  - { offsetInCU: 0x9D3D, offset: 0x9D3D, size: 0x8, addend: 0x0, symName: __ZNKSt3__114__copy_trivialclB8ue170006IKccLi0EEENS_4pairIPT_PT0_EES5_S5_S7_, symObjAddr: 0x1960, symBinAddr: 0x1000024BC, symSize: 0x48 }
  - { offsetInCU: 0x9DC3, offset: 0x9DC3, size: 0x8, addend: 0x0, symName: __ZNSt3__14pairIPKcS2_EC1B8ue170006IS2_S2_LPv0EEEOT_OT0_, symObjAddr: 0x1AC8, symBinAddr: 0x100002624, symSize: 0x3C }
  - { offsetInCU: 0x9E21, offset: 0x9E21, size: 0x8, addend: 0x0, symName: __ZNSt3__14pairIPKcS2_EC2B8ue170006IS2_S2_LPv0EEEOT_OT0_, symObjAddr: 0x1B04, symBinAddr: 0x100002660, symSize: 0x34 }
  - { offsetInCU: 0x9E7F, offset: 0x9E7F, size: 0x8, addend: 0x0, symName: __ZNSt3__118__unwrap_iter_implIPKcLb1EE8__unwrapB8ue170006ES2_, symObjAddr: 0x1B38, symBinAddr: 0x100002694, symSize: 0x24 }
  - { offsetInCU: 0x9EAC, offset: 0x9EAC, size: 0x8, addend: 0x0, symName: __ZNSt3__14pairIPKcPcEC1B8ue170006IRS2_S3_LPv0EEEOT_OT0_, symObjAddr: 0x1C70, symBinAddr: 0x1000027CC, symSize: 0x3C }
  - { offsetInCU: 0x9F0A, offset: 0x9F0A, size: 0x8, addend: 0x0, symName: __ZNSt3__14pairIPKcPcEC2B8ue170006IRS2_S3_LPv0EEEOT_OT0_, symObjAddr: 0x1CAC, symBinAddr: 0x100002808, symSize: 0x34 }
  - { offsetInCU: 0x9F68, offset: 0x9F68, size: 0x8, addend: 0x0, symName: __ZNSt3__118__unwrap_iter_implIPcLb1EE8__unwrapB8ue170006ES1_, symObjAddr: 0x1CE0, symBinAddr: 0x10000283C, symSize: 0x24 }
  - { offsetInCU: 0x9F8B, offset: 0x9F8B, size: 0x8, addend: 0x0, symName: __ZNSt3__14pairIPKcPcEC1B8ue170006IS2_S3_LPv0EEEOT_OT0_, symObjAddr: 0x1D04, symBinAddr: 0x100002860, symSize: 0x3C }
  - { offsetInCU: 0x9FE9, offset: 0x9FE9, size: 0x8, addend: 0x0, symName: __ZNSt3__14pairIPKcPcEC2B8ue170006IS2_S3_LPv0EEEOT_OT0_, symObjAddr: 0x1D40, symBinAddr: 0x10000289C, symSize: 0x34 }
  - { offsetInCU: 0xA047, offset: 0xA047, size: 0x8, addend: 0x0, symName: __ZNSt3__118__unwrap_iter_implIPKcLb1EE8__rewrapB8ue170006ES2_S2_, symObjAddr: 0x1DB0, symBinAddr: 0x10000290C, symSize: 0x48 }
  - { offsetInCU: 0xA078, offset: 0xA078, size: 0x8, addend: 0x0, symName: __ZNSt3__118__unwrap_iter_implIPcLb1EE8__rewrapB8ue170006ES1_S1_, symObjAddr: 0x1DF8, symBinAddr: 0x100002954, symSize: 0x48 }
  - { offsetInCU: 0xA0A9, offset: 0xA0A9, size: 0x8, addend: 0x0, symName: __ZNSt3__112basic_stringIcNS_11char_traitsIcEENS_9allocatorIcEEE6appendB8ue170006ERKS5_, symObjAddr: 0x1EFC, symBinAddr: 0x100002A58, symSize: 0x4C }
  - { offsetInCU: 0xA0DE, offset: 0xA0DE, size: 0x8, addend: 0x0, symName: __ZNSt3__112basic_stringIcNS_11char_traitsIcEENS_9allocatorIcEEEC1B8ue170006EOS5_, symObjAddr: 0x1F48, symBinAddr: 0x100002AA4, symSize: 0x34 }
  - { offsetInCU: 0xA117, offset: 0xA117, size: 0x8, addend: 0x0, symName: __ZNSt3__112basic_stringIcNS_11char_traitsIcEENS_9allocatorIcEEEC2B8ue170006EOS5_, symObjAddr: 0x1F7C, symBinAddr: 0x100002AD8, symSize: 0x48 }
  - { offsetInCU: 0xA16E, offset: 0xA16E, size: 0x8, addend: 0x0, symName: __ZNKSt3__113basic_ostreamIcNS_11char_traitsIcEEE6sentrycvbB8ue170006Ev, symObjAddr: 0x21B0, symBinAddr: 0x100002D0C, symSize: 0x1C }
  - { offsetInCU: 0xA194, offset: 0xA194, size: 0x8, addend: 0x0, symName: __ZNSt3__119ostreambuf_iteratorIcNS_11char_traitsIcEEEC1B8ue170006ERNS_13basic_ostreamIcS2_EE, symObjAddr: 0x240C, symBinAddr: 0x100002F68, symSize: 0x34 }
  - { offsetInCU: 0xA1CC, offset: 0xA1CC, size: 0x8, addend: 0x0, symName: __ZNKSt3__18ios_base5flagsB8ue170006Ev, symObjAddr: 0x2440, symBinAddr: 0x100002F9C, symSize: 0x18 }
  - { offsetInCU: 0xA1F4, offset: 0xA1F4, size: 0x8, addend: 0x0, symName: __ZNKSt3__19basic_iosIcNS_11char_traitsIcEEE4fillB8ue170006Ev, symObjAddr: 0x2458, symBinAddr: 0x100002FB4, symSize: 0x64 }
  - { offsetInCU: 0xA21C, offset: 0xA21C, size: 0x8, addend: 0x0, symName: __ZNKSt3__119ostreambuf_iteratorIcNS_11char_traitsIcEEE6failedB8ue170006Ev, symObjAddr: 0x24BC, symBinAddr: 0x100003018, symSize: 0x24 }
  - { offsetInCU: 0xA242, offset: 0xA242, size: 0x8, addend: 0x0, symName: __ZNSt3__19basic_iosIcNS_11char_traitsIcEEE8setstateB8ue170006Ej, symObjAddr: 0x24E0, symBinAddr: 0x10000303C, symSize: 0x2C }
  - { offsetInCU: 0xA277, offset: 0xA277, size: 0x8, addend: 0x0, symName: __ZNKSt3__18ios_base5widthB8ue170006Ev, symObjAddr: 0x250C, symBinAddr: 0x100003068, symSize: 0x18 }
  - { offsetInCU: 0xA29F, offset: 0xA29F, size: 0x8, addend: 0x0, symName: __ZNSt3__115basic_streambufIcNS_11char_traitsIcEEE5sputnB8ue170006EPKcl, symObjAddr: 0x2524, symBinAddr: 0x100003080, symSize: 0x3C }
  - { offsetInCU: 0xA2E1, offset: 0xA2E1, size: 0x8, addend: 0x0, symName: __ZNSt3__112basic_stringIcNS_11char_traitsIcEENS_9allocatorIcEEEC1B8ue170006Emc, symObjAddr: 0x2560, symBinAddr: 0x1000030BC, symSize: 0x3C }
  - { offsetInCU: 0xA329, offset: 0xA329, size: 0x8, addend: 0x0, symName: __ZNSt3__112basic_stringIcNS_11char_traitsIcEENS_9allocatorIcEEE4dataB8ue170006Ev, symObjAddr: 0x259C, symBinAddr: 0x1000030F8, symSize: 0x28 }
  - { offsetInCU: 0xA34F, offset: 0xA34F, size: 0x8, addend: 0x0, symName: __ZNSt3__112basic_stringIcNS_11char_traitsIcEENS_9allocatorIcEEEC2B8ue170006Emc, symObjAddr: 0x25C4, symBinAddr: 0x100003120, symSize: 0x4C }
  - { offsetInCU: 0xA397, offset: 0xA397, size: 0x8, addend: 0x0, symName: __ZNSt3__119ostreambuf_iteratorIcNS_11char_traitsIcEEEC2B8ue170006ERNS_13basic_ostreamIcS2_EE, symObjAddr: 0x2610, symBinAddr: 0x10000316C, symSize: 0x54 }
  - { offsetInCU: 0xA3CF, offset: 0xA3CF, size: 0x8, addend: 0x0, symName: __ZNKSt3__19basic_iosIcNS_11char_traitsIcEEE5rdbufB8ue170006Ev, symObjAddr: 0x2664, symBinAddr: 0x1000031C0, symSize: 0x24 }
  - { offsetInCU: 0xA3F7, offset: 0xA3F7, size: 0x8, addend: 0x0, symName: __ZNKSt3__18ios_base5rdbufB8ue170006Ev, symObjAddr: 0x2688, symBinAddr: 0x1000031E4, symSize: 0x18 }
  - { offsetInCU: 0xA41D, offset: 0xA41D, size: 0x8, addend: 0x0, symName: __ZNSt3__111char_traitsIcE11eq_int_typeB8ue170006Eii, symObjAddr: 0x26A0, symBinAddr: 0x1000031FC, symSize: 0x28 }
  - { offsetInCU: 0xA450, offset: 0xA450, size: 0x8, addend: 0x0, symName: __ZNSt3__111char_traitsIcE3eofB8ue170006Ev, symObjAddr: 0x26C8, symBinAddr: 0x100003224, symSize: 0x8 }
  - { offsetInCU: 0xA464, offset: 0xA464, size: 0x8, addend: 0x0, symName: __ZNKSt3__19basic_iosIcNS_11char_traitsIcEEE5widenB8ue170006Ec, symObjAddr: 0x26D0, symBinAddr: 0x10000322C, symSize: 0x84 }
  - { offsetInCU: 0xA4CD, offset: 0xA4CD, size: 0x8, addend: 0x0, symName: __ZNKSt3__15ctypeIcE5widenB8ue170006Ec, symObjAddr: 0x2780, symBinAddr: 0x1000032DC, symSize: 0x38 }
  - { offsetInCU: 0xA502, offset: 0xA502, size: 0x8, addend: 0x0, symName: __ZNSt3__18ios_base8setstateB8ue170006Ej, symObjAddr: 0x27B8, symBinAddr: 0x100003314, symSize: 0x34 }
  - { offsetInCU: 0x51, offset: 0xA606, size: 0x8, addend: 0x0, symName: __ZN6seneca10CollectionINS_4BookELj10EE14m_smallestItemE, symObjAddr: 0x22540, symBinAddr: 0x10000C030, symSize: 0x0 }
  - { offsetInCU: 0x28A, offset: 0xA83F, size: 0x8, addend: 0x0, symName: __ZN6seneca10CollectionINS_4BookELj10EE13m_largestItemE, symObjAddr: 0x22560, symBinAddr: 0x10000C050, symSize: 0x0 }
  - { offsetInCU: 0x29E, offset: 0xA853, size: 0x8, addend: 0x0, symName: __ZN6seneca10CollectionINS_4BookELj72EE14m_smallestItemE, symObjAddr: 0x22580, symBinAddr: 0x10000C070, symSize: 0x0 }
  - { offsetInCU: 0x3F6, offset: 0xA9AB, size: 0x8, addend: 0x0, symName: __ZN6seneca10CollectionINS_4BookELj72EE13m_largestItemE, symObjAddr: 0x225A0, symBinAddr: 0x10000C090, symSize: 0x0 }
  - { offsetInCU: 0x40A, offset: 0xA9BF, size: 0x8, addend: 0x0, symName: __ZN6seneca10CollectionIiLj10EE14m_smallestItemE, symObjAddr: 0x4F58, symBinAddr: 0x10000C000, symSize: 0x0 }
  - { offsetInCU: 0x56C, offset: 0xAB21, size: 0x8, addend: 0x0, symName: __ZN6seneca10CollectionIiLj10EE13m_largestItemE, symObjAddr: 0x4F5C, symBinAddr: 0x10000C004, symSize: 0x0 }
  - { offsetInCU: 0x580, offset: 0xAB35, size: 0x8, addend: 0x0, symName: __ZN6seneca10CollectionIdLj10EE14m_smallestItemE, symObjAddr: 0x4F60, symBinAddr: 0x10000C008, symSize: 0x0 }
  - { offsetInCU: 0x6E2, offset: 0xAC97, size: 0x8, addend: 0x0, symName: __ZN6seneca10CollectionIdLj10EE13m_largestItemE, symObjAddr: 0x4F68, symBinAddr: 0x10000C010, symSize: 0x0 }
  - { offsetInCU: 0x6F6, offset: 0xACAB, size: 0x8, addend: 0x0, symName: __ZN6seneca10CollectionIiLj72EE14m_smallestItemE, symObjAddr: 0x4F70, symBinAddr: 0x10000C018, symSize: 0x0 }
  - { offsetInCU: 0x85A, offset: 0xAE0F, size: 0x8, addend: 0x0, symName: __ZN6seneca10CollectionIiLj72EE13m_largestItemE, symObjAddr: 0x4F74, symBinAddr: 0x10000C01C, symSize: 0x0 }
  - { offsetInCU: 0x86E, offset: 0xAE23, size: 0x8, addend: 0x0, symName: __ZN6seneca10CollectionIdLj72EE14m_smallestItemE, symObjAddr: 0x4F78, symBinAddr: 0x10000C020, symSize: 0x0 }
  - { offsetInCU: 0x9D2, offset: 0xAF87, size: 0x8, addend: 0x0, symName: __ZN6seneca10CollectionIdLj72EE13m_largestItemE, symObjAddr: 0x4F80, symBinAddr: 0x10000C028, symSize: 0x0 }
  - { offsetInCU: 0x48D1, offset: 0xEE86, size: 0x8, addend: 0x0, symName: __ZNSt3__1lsB8ue170006INS_11char_traitsIcEEEERNS_13basic_ostreamIcT_EES6_c, symObjAddr: 0x1C10, symBinAddr: 0x100004F10, symSize: 0x34 }
  - { offsetInCU: 0x4917, offset: 0xEECC, size: 0x8, addend: 0x0, symName: __ZNSt3__1lsB8ue170006IcNS_11char_traitsIcEEEERNS_13basic_ostreamIT_T0_EES7_RKNS_8__iom_t6E, symObjAddr: 0x1C44, symBinAddr: 0x100004F44, symSize: 0x40 }
  - { offsetInCU: 0x4966, offset: 0xEF1B, size: 0x8, addend: 0x0, symName: __ZNSt3__14setwB8ue170006Ei, symObjAddr: 0x1C84, symBinAddr: 0x100004F84, symSize: 0x2C }
  - { offsetInCU: 0x4994, offset: 0xEF49, size: 0x8, addend: 0x0, symName: __ZNSt3__14endlB8ue170006IcNS_11char_traitsIcEEEERNS_13basic_ostreamIT_T0_EES7_, symObjAddr: 0x1CDC, symBinAddr: 0x100004FDC, symSize: 0x58 }
  - { offsetInCU: 0x4C96, offset: 0xF24B, size: 0x8, addend: 0x0, symName: _cout, symObjAddr: 0x225C0, symBinAddr: 0x10000C0B0, symSize: 0x0 }
  - { offsetInCU: 0x6AF2, offset: 0x110A7, size: 0x8, addend: 0x0, symName: __ZNSt3__112basic_stringIcNS_11char_traitsIcEENS_9allocatorIcEEEC1B8ue170006ILi0EEEPKc, symObjAddr: 0x0, symBinAddr: 0x100003348, symSize: 0x34 }
  - { offsetInCU: 0x6B31, offset: 0x110E6, size: 0x8, addend: 0x0, symName: __ZN6seneca4BookD1Ev, symObjAddr: 0x34, symBinAddr: 0x10000337C, symSize: 0x2C }
  - { offsetInCU: 0x6B5D, offset: 0x11112, size: 0x8, addend: 0x0, symName: _main, symObjAddr: 0x60, symBinAddr: 0x1000033A8, symSize: 0x1B68 }
  - { offsetInCU: 0x6E9F, offset: 0x11454, size: 0x8, addend: 0x0, symName: __ZNSt3__113basic_ostreamIcNS_11char_traitsIcEEElsB8ue170006EPFRS3_S4_E, symObjAddr: 0x1CB0, symBinAddr: 0x100004FB0, symSize: 0x2C }
  - { offsetInCU: 0x6ED3, offset: 0x11488, size: 0x8, addend: 0x0, symName: __ZN6seneca10CollectionIiLj10EEC1Ev, symObjAddr: 0x1D34, symBinAddr: 0x100005034, symSize: 0x2C }
  - { offsetInCU: 0x6EFF, offset: 0x114B4, size: 0x8, addend: 0x0, symName: __ZN6seneca10CollectionIiLj10EEpLERKi, symObjAddr: 0x1D60, symBinAddr: 0x100005060, symSize: 0xC0 }
  - { offsetInCU: 0x6F34, offset: 0x114E9, size: 0x8, addend: 0x0, symName: __ZN6seneca10CollectionIiLj10EE15getSmallestItemEv, symObjAddr: 0x1E20, symBinAddr: 0x100005120, symSize: 0x1C }
  - { offsetInCU: 0x6F5A, offset: 0x1150F, size: 0x8, addend: 0x0, symName: __ZN6seneca10CollectionIiLj10EE14getLargestItemEv, symObjAddr: 0x1E3C, symBinAddr: 0x10000513C, symSize: 0x1C }
  - { offsetInCU: 0x6F80, offset: 0x11535, size: 0x8, addend: 0x0, symName: __ZN6seneca10CollectionIiLj10EE4sizeEv, symObjAddr: 0x1E58, symBinAddr: 0x100005158, symSize: 0x18 }
  - { offsetInCU: 0x6FA6, offset: 0x1155B, size: 0x8, addend: 0x0, symName: __ZN6seneca10CollectionIiLj10EE8capacityEv, symObjAddr: 0x1E70, symBinAddr: 0x100005170, symSize: 0x18 }
  - { offsetInCU: 0x6FCB, offset: 0x11580, size: 0x8, addend: 0x0, symName: __ZN6seneca10CollectionIiLj10EE5printERNSt3__113basic_ostreamIcNS2_11char_traitsIcEEEE, symObjAddr: 0x1E88, symBinAddr: 0x100005188, symSize: 0xD0 }
  - { offsetInCU: 0x701B, offset: 0x115D0, size: 0x8, addend: 0x0, symName: __ZN6seneca10CollectionIdLj10EEC1Ev, symObjAddr: 0x1F58, symBinAddr: 0x100005258, symSize: 0x2C }
  - { offsetInCU: 0x7047, offset: 0x115FC, size: 0x8, addend: 0x0, symName: __ZN6seneca10CollectionIdLj10EEpLERKd, symObjAddr: 0x1F84, symBinAddr: 0x100005284, symSize: 0xC0 }
  - { offsetInCU: 0x707C, offset: 0x11631, size: 0x8, addend: 0x0, symName: __ZN6seneca10CollectionIdLj10EE15getSmallestItemEv, symObjAddr: 0x2044, symBinAddr: 0x100005344, symSize: 0x1C }
  - { offsetInCU: 0x70A2, offset: 0x11657, size: 0x8, addend: 0x0, symName: __ZN6seneca10CollectionIdLj10EE14getLargestItemEv, symObjAddr: 0x2060, symBinAddr: 0x100005360, symSize: 0x1C }
  - { offsetInCU: 0x70C8, offset: 0x1167D, size: 0x8, addend: 0x0, symName: __ZN6seneca10CollectionIdLj10EE4sizeEv, symObjAddr: 0x207C, symBinAddr: 0x10000537C, symSize: 0x18 }
  - { offsetInCU: 0x70EE, offset: 0x116A3, size: 0x8, addend: 0x0, symName: __ZN6seneca10CollectionIdLj10EE8capacityEv, symObjAddr: 0x2094, symBinAddr: 0x100005394, symSize: 0x18 }
  - { offsetInCU: 0x7113, offset: 0x116C8, size: 0x8, addend: 0x0, symName: __ZN6seneca10CollectionIdLj10EE5printERNSt3__113basic_ostreamIcNS2_11char_traitsIcEEEE, symObjAddr: 0x20AC, symBinAddr: 0x1000053AC, symSize: 0xD0 }
  - { offsetInCU: 0x7163, offset: 0x11718, size: 0x8, addend: 0x0, symName: __ZN6seneca10CollectionINS_4BookELj10EEC1Ev, symObjAddr: 0x217C, symBinAddr: 0x10000547C, symSize: 0x2C }
  - { offsetInCU: 0x718F, offset: 0x11744, size: 0x8, addend: 0x0, symName: __ZN6seneca10CollectionINS_4BookELj10EE15getSmallestItemEv, symObjAddr: 0x21A8, symBinAddr: 0x1000054A8, symSize: 0x3C }
  - { offsetInCU: 0x71B5, offset: 0x1176A, size: 0x8, addend: 0x0, symName: __ZN6seneca10CollectionINS_4BookELj10EE14getLargestItemEv, symObjAddr: 0x21E4, symBinAddr: 0x1000054E4, symSize: 0x3C }
  - { offsetInCU: 0x71DC, offset: 0x11791, size: 0x8, addend: 0x0, symName: __ZN6seneca10CollectionINS_4BookELj10EE4sizeEv, symObjAddr: 0x2220, symBinAddr: 0x100005520, symSize: 0x18 }
  - { offsetInCU: 0x7202, offset: 0x117B7, size: 0x8, addend: 0x0, symName: __ZN6seneca10CollectionINS_4BookELj10EE8capacityEv, symObjAddr: 0x2238, symBinAddr: 0x100005538, symSize: 0x18 }
  - { offsetInCU: 0x7227, offset: 0x117DC, size: 0x8, addend: 0x0, symName: __ZN6seneca10CollectionINS_4BookELj10EEpLERKS1_, symObjAddr: 0x2250, symBinAddr: 0x100005550, symSize: 0xC4 }
  - { offsetInCU: 0x725B, offset: 0x11810, size: 0x8, addend: 0x0, symName: __ZN6seneca10CollectionINS_4BookELj10EE5printERNSt3__113basic_ostreamIcNS3_11char_traitsIcEEEE, symObjAddr: 0x2314, symBinAddr: 0x100005614, symSize: 0xD8 }
  - { offsetInCU: 0x72AB, offset: 0x11860, size: 0x8, addend: 0x0, symName: __ZN6seneca10CollectionINS_4BookELj10EED1Ev, symObjAddr: 0x23EC, symBinAddr: 0x1000056EC, symSize: 0x2C }
  - { offsetInCU: 0x72DC, offset: 0x11891, size: 0x8, addend: 0x0, symName: __ZN6seneca17OrderedCollectionIiEC1Ev, symObjAddr: 0x2418, symBinAddr: 0x100005718, symSize: 0x2C }
  - { offsetInCU: 0x7308, offset: 0x118BD, size: 0x8, addend: 0x0, symName: __ZN6seneca17OrderedCollectionIiEpLERKi, symObjAddr: 0x2444, symBinAddr: 0x100005744, symSize: 0x1E8 }
  - { offsetInCU: 0x7375, offset: 0x1192A, size: 0x8, addend: 0x0, symName: __ZN6seneca10CollectionIiLj72EE15getSmallestItemEv, symObjAddr: 0x262C, symBinAddr: 0x10000592C, symSize: 0x1C }
  - { offsetInCU: 0x739B, offset: 0x11950, size: 0x8, addend: 0x0, symName: __ZN6seneca10CollectionIiLj72EE14getLargestItemEv, symObjAddr: 0x2648, symBinAddr: 0x100005948, symSize: 0x1C }
  - { offsetInCU: 0x73C1, offset: 0x11976, size: 0x8, addend: 0x0, symName: __ZN6seneca10CollectionIiLj72EE4sizeEv, symObjAddr: 0x2664, symBinAddr: 0x100005964, symSize: 0x18 }
  - { offsetInCU: 0x73E7, offset: 0x1199C, size: 0x8, addend: 0x0, symName: __ZN6seneca10CollectionIiLj72EE8capacityEv, symObjAddr: 0x267C, symBinAddr: 0x10000597C, symSize: 0x18 }
  - { offsetInCU: 0x740C, offset: 0x119C1, size: 0x8, addend: 0x0, symName: __ZN6seneca10CollectionIiLj72EE5printERNSt3__113basic_ostreamIcNS2_11char_traitsIcEEEE, symObjAddr: 0x2694, symBinAddr: 0x100005994, symSize: 0xD0 }
  - { offsetInCU: 0x7461, offset: 0x11A16, size: 0x8, addend: 0x0, symName: __ZN6seneca17OrderedCollectionIdEC1Ev, symObjAddr: 0x2764, symBinAddr: 0x100005A64, symSize: 0x2C }
  - { offsetInCU: 0x748D, offset: 0x11A42, size: 0x8, addend: 0x0, symName: __ZN6seneca17OrderedCollectionIdEpLERKd, symObjAddr: 0x2790, symBinAddr: 0x100005A90, symSize: 0x1E8 }
  - { offsetInCU: 0x74FA, offset: 0x11AAF, size: 0x8, addend: 0x0, symName: __ZN6seneca10CollectionIdLj72EE15getSmallestItemEv, symObjAddr: 0x2978, symBinAddr: 0x100005C78, symSize: 0x1C }
  - { offsetInCU: 0x7520, offset: 0x11AD5, size: 0x8, addend: 0x0, symName: __ZN6seneca10CollectionIdLj72EE14getLargestItemEv, symObjAddr: 0x2994, symBinAddr: 0x100005C94, symSize: 0x1C }
  - { offsetInCU: 0x7546, offset: 0x11AFB, size: 0x8, addend: 0x0, symName: __ZN6seneca10CollectionIdLj72EE4sizeEv, symObjAddr: 0x29B0, symBinAddr: 0x100005CB0, symSize: 0x18 }
  - { offsetInCU: 0x756C, offset: 0x11B21, size: 0x8, addend: 0x0, symName: __ZN6seneca10CollectionIdLj72EE8capacityEv, symObjAddr: 0x29C8, symBinAddr: 0x100005CC8, symSize: 0x18 }
  - { offsetInCU: 0x7591, offset: 0x11B46, size: 0x8, addend: 0x0, symName: __ZN6seneca10CollectionIdLj72EE5printERNSt3__113basic_ostreamIcNS2_11char_traitsIcEEEE, symObjAddr: 0x29E0, symBinAddr: 0x100005CE0, symSize: 0xD0 }
  - { offsetInCU: 0x75E6, offset: 0x11B9B, size: 0x8, addend: 0x0, symName: __ZN6seneca17OrderedCollectionINS_4BookEEC1Ev, symObjAddr: 0x2AB0, symBinAddr: 0x100005DB0, symSize: 0x2C }
  - { offsetInCU: 0x7612, offset: 0x11BC7, size: 0x8, addend: 0x0, symName: __ZN6seneca10CollectionINS_4BookELj72EE15getSmallestItemEv, symObjAddr: 0x2ADC, symBinAddr: 0x100005DDC, symSize: 0x3C }
  - { offsetInCU: 0x7638, offset: 0x11BED, size: 0x8, addend: 0x0, symName: __ZN6seneca10CollectionINS_4BookELj72EE14getLargestItemEv, symObjAddr: 0x2B18, symBinAddr: 0x100005E18, symSize: 0x3C }
  - { offsetInCU: 0x765F, offset: 0x11C14, size: 0x8, addend: 0x0, symName: __ZN6seneca10CollectionINS_4BookELj72EE4sizeEv, symObjAddr: 0x2B54, symBinAddr: 0x100005E54, symSize: 0x18 }
  - { offsetInCU: 0x7685, offset: 0x11C3A, size: 0x8, addend: 0x0, symName: __ZN6seneca10CollectionINS_4BookELj72EE8capacityEv, symObjAddr: 0x2B6C, symBinAddr: 0x100005E6C, symSize: 0x18 }
  - { offsetInCU: 0x76AA, offset: 0x11C5F, size: 0x8, addend: 0x0, symName: __ZN6seneca17OrderedCollectionINS_4BookEEpLERKS1_, symObjAddr: 0x2B84, symBinAddr: 0x100005E84, symSize: 0x1E4 }
  - { offsetInCU: 0x7716, offset: 0x11CCB, size: 0x8, addend: 0x0, symName: __ZN6seneca10CollectionINS_4BookELj72EE5printERNSt3__113basic_ostreamIcNS3_11char_traitsIcEEEE, symObjAddr: 0x2D68, symBinAddr: 0x100006068, symSize: 0xD8 }
  - { offsetInCU: 0x7768, offset: 0x11D1D, size: 0x8, addend: 0x0, symName: __ZN6seneca17OrderedCollectionINS_4BookEED1Ev, symObjAddr: 0x2E40, symBinAddr: 0x100006140, symSize: 0x2C }
  - { offsetInCU: 0x7794, offset: 0x11D49, size: 0x8, addend: 0x0, symName: __ZN6seneca4BookD2Ev, symObjAddr: 0x2E6C, symBinAddr: 0x10000616C, symSize: 0x2C }
  - { offsetInCU: 0x77C0, offset: 0x11D75, size: 0x8, addend: 0x0, symName: __ZNSt3__18__iom_t6C1B8ue170006Ei, symObjAddr: 0x2E98, symBinAddr: 0x100006198, symSize: 0x34 }
  - { offsetInCU: 0x77F9, offset: 0x11DAE, size: 0x8, addend: 0x0, symName: __ZNSt3__18__iom_t6C2B8ue170006Ei, symObjAddr: 0x2ECC, symBinAddr: 0x1000061CC, symSize: 0x20 }
  - { offsetInCU: 0x7831, offset: 0x11DE6, size: 0x8, addend: 0x0, symName: __ZN6seneca10CollectionIiLj10EEC2Ev, symObjAddr: 0x2EEC, symBinAddr: 0x1000061EC, symSize: 0x20 }
  - { offsetInCU: 0x785D, offset: 0x11E12, size: 0x8, addend: 0x0, symName: __ZN6seneca10CollectionIdLj10EEC2Ev, symObjAddr: 0x2F0C, symBinAddr: 0x10000620C, symSize: 0x20 }
  - { offsetInCU: 0x7888, offset: 0x11E3D, size: 0x8, addend: 0x0, symName: __ZN6seneca10CollectionINS_4BookELj10EEC2Ev, symObjAddr: 0x2F2C, symBinAddr: 0x10000622C, symSize: 0xE0 }
  - { offsetInCU: 0x78B4, offset: 0x11E69, size: 0x8, addend: 0x0, symName: __ZN6seneca4BookC1ERKS0_, symObjAddr: 0x300C, symBinAddr: 0x10000630C, symSize: 0x34 }
  - { offsetInCU: 0x78E9, offset: 0x11E9E, size: 0x8, addend: 0x0, symName: __ZN6seneca4BookC2ERKS0_, symObjAddr: 0x3040, symBinAddr: 0x100006340, symSize: 0x40 }
  - { offsetInCU: 0x791E, offset: 0x11ED3, size: 0x8, addend: 0x0, symName: __ZN6seneca10CollectionINS_4BookELj10EE15setSmallestItemERKS1_, symObjAddr: 0x3080, symBinAddr: 0x100006380, symSize: 0x4C }
  - { offsetInCU: 0x7952, offset: 0x11F07, size: 0x8, addend: 0x0, symName: __ZN6seneca10CollectionINS_4BookELj10EE14setLargestItemERKS1_, symObjAddr: 0x30CC, symBinAddr: 0x1000063CC, symSize: 0x4C }
  - { offsetInCU: 0x798C, offset: 0x11F41, size: 0x8, addend: 0x0, symName: __ZN6seneca4BookaSERKS0_, symObjAddr: 0x3118, symBinAddr: 0x100006418, symSize: 0x40 }
  - { offsetInCU: 0x79BC, offset: 0x11F71, size: 0x8, addend: 0x0, symName: __ZN6seneca10CollectionINS_4BookELj10EED2Ev, symObjAddr: 0x3158, symBinAddr: 0x100006458, symSize: 0x6C }
  - { offsetInCU: 0x79E8, offset: 0x11F9D, size: 0x8, addend: 0x0, symName: __ZN6seneca17OrderedCollectionIiEC2Ev, symObjAddr: 0x31C4, symBinAddr: 0x1000064C4, symSize: 0x2C }
  - { offsetInCU: 0x7A15, offset: 0x11FCA, size: 0x8, addend: 0x0, symName: __ZN6seneca10CollectionIiLj72EEC2Ev, symObjAddr: 0x31F0, symBinAddr: 0x1000064F0, symSize: 0x20 }
  - { offsetInCU: 0x7A40, offset: 0x11FF5, size: 0x8, addend: 0x0, symName: __ZN6seneca17OrderedCollectionIdEC2Ev, symObjAddr: 0x3210, symBinAddr: 0x100006510, symSize: 0x2C }
  - { offsetInCU: 0x7A6D, offset: 0x12022, size: 0x8, addend: 0x0, symName: __ZN6seneca10CollectionIdLj72EEC2Ev, symObjAddr: 0x323C, symBinAddr: 0x10000653C, symSize: 0x20 }
  - { offsetInCU: 0x7A98, offset: 0x1204D, size: 0x8, addend: 0x0, symName: __ZN6seneca17OrderedCollectionINS_4BookEEC2Ev, symObjAddr: 0x325C, symBinAddr: 0x10000655C, symSize: 0x2C }
  - { offsetInCU: 0x7AC4, offset: 0x12079, size: 0x8, addend: 0x0, symName: __ZN6seneca10CollectionINS_4BookELj72EEC2Ev, symObjAddr: 0x3288, symBinAddr: 0x100006588, symSize: 0xE0 }
  - { offsetInCU: 0x7AF0, offset: 0x120A5, size: 0x8, addend: 0x0, symName: __ZN6seneca17OrderedCollectionINS_4BookEED2Ev, symObjAddr: 0x3368, symBinAddr: 0x100006668, symSize: 0x2C }
  - { offsetInCU: 0x7B1C, offset: 0x120D1, size: 0x8, addend: 0x0, symName: __ZN6seneca10CollectionINS_4BookELj72EED2Ev, symObjAddr: 0x3394, symBinAddr: 0x100006694, symSize: 0x6C }
  - { offsetInCU: 0x7B66, offset: 0x1211B, size: 0x8, addend: 0x0, symName: __ZNSt3__112basic_stringIcNS_11char_traitsIcEENS_9allocatorIcEEEC2B8ue170006ILi0EEEPKc, symObjAddr: 0x3F24, symBinAddr: 0x100006700, symSize: 0x58 }
  - { offsetInCU: 0x7BA6, offset: 0x1215B, size: 0x8, addend: 0x0, symName: __ZN6seneca10CollectionIiLj10EE15setSmallestItemERKi, symObjAddr: 0x3F7C, symBinAddr: 0x100006758, symSize: 0x50 }
  - { offsetInCU: 0x7BDA, offset: 0x1218F, size: 0x8, addend: 0x0, symName: __ZN6seneca10CollectionIiLj10EE14setLargestItemERKi, symObjAddr: 0x3FCC, symBinAddr: 0x1000067A8, symSize: 0x50 }
  - { offsetInCU: 0x7C0E, offset: 0x121C3, size: 0x8, addend: 0x0, symName: __ZN6seneca10CollectionIdLj10EE15setSmallestItemERKd, symObjAddr: 0x401C, symBinAddr: 0x1000067F8, symSize: 0x50 }
  - { offsetInCU: 0x7C42, offset: 0x121F7, size: 0x8, addend: 0x0, symName: __ZN6seneca10CollectionIdLj10EE14setLargestItemERKd, symObjAddr: 0x406C, symBinAddr: 0x100006848, symSize: 0x50 }
  - { offsetInCU: 0x7C76, offset: 0x1222B, size: 0x8, addend: 0x0, symName: __ZN6seneca10CollectionIiLj72EE15setSmallestItemERKi, symObjAddr: 0x40BC, symBinAddr: 0x100006898, symSize: 0x50 }
  - { offsetInCU: 0x7CAA, offset: 0x1225F, size: 0x8, addend: 0x0, symName: __ZN6seneca10CollectionIiLj72EE14setLargestItemERKi, symObjAddr: 0x410C, symBinAddr: 0x1000068E8, symSize: 0x50 }
  - { offsetInCU: 0x7CDE, offset: 0x12293, size: 0x8, addend: 0x0, symName: __ZN6seneca10CollectionIiLj72EE8incrSizeEv, symObjAddr: 0x415C, symBinAddr: 0x100006938, symSize: 0x20 }
  - { offsetInCU: 0x7D04, offset: 0x122B9, size: 0x8, addend: 0x0, symName: __ZN6seneca10CollectionIdLj72EE15setSmallestItemERKd, symObjAddr: 0x417C, symBinAddr: 0x100006958, symSize: 0x50 }
  - { offsetInCU: 0x7D38, offset: 0x122ED, size: 0x8, addend: 0x0, symName: __ZN6seneca10CollectionIdLj72EE14setLargestItemERKd, symObjAddr: 0x41CC, symBinAddr: 0x1000069A8, symSize: 0x50 }
  - { offsetInCU: 0x7D6C, offset: 0x12321, size: 0x8, addend: 0x0, symName: __ZN6seneca10CollectionIdLj72EE8incrSizeEv, symObjAddr: 0x421C, symBinAddr: 0x1000069F8, symSize: 0x20 }
  - { offsetInCU: 0x7D91, offset: 0x12346, size: 0x8, addend: 0x0, symName: __ZN6seneca10CollectionINS_4BookELj72EE15setSmallestItemERKS1_, symObjAddr: 0x423C, symBinAddr: 0x100006A18, symSize: 0x4C }
  - { offsetInCU: 0x7DC5, offset: 0x1237A, size: 0x8, addend: 0x0, symName: __ZN6seneca10CollectionINS_4BookELj72EE14setLargestItemERKS1_, symObjAddr: 0x4288, symBinAddr: 0x100006A64, symSize: 0x4C }
  - { offsetInCU: 0x7DFA, offset: 0x123AF, size: 0x8, addend: 0x0, symName: __ZN6seneca10CollectionINS_4BookELj72EE8incrSizeEv, symObjAddr: 0x42D4, symBinAddr: 0x100006AB0, symSize: 0x20 }
...
